; Function Attrs: mustprogress nounwind uwtable
define dso_local { ptr, i64 } @_ZNK5clang6driver11Compilation10getSysRootEv(ptr nocapture noundef nonnull readonly align 8 dereferenceable(523) %0) local_unnamed_addr #0 align 2 {
  %2 = load ptr, ptr %0, align 8
  %3 = getelementptr inbounds nuw i8, ptr %2, i64 464
  %4 = tail call noundef ptr @_ZNKSt7__cxx1112basic_stringIcSt11char_traitsIcESaIcEE4dataEv(ptr noundef nonnull align 8 dereferenceable(32) %3) #17
  %5 = tail call noundef i64 @_ZNKSt7__cxx1112basic_stringIcSt11char_traitsIcESaIcEE6lengthEv(ptr noundef nonnull align 8 dereferenceable(32) %3) #17
  %.fca.0.insert = insertvalue { ptr, i64 } poison, ptr %4, 0
  %.fca.1.insert = insertvalue { ptr, i64 } %.fca.0.insert, i64 %5, 1
  ret { ptr, i64 } %.fca.1.insert
}